; Function Attrs: mustprogress uwtable
define void @_ZN4LIEF5MachO4Hash5visitERKNS0_10VersionMinE(ptr noundef nonnull align 8 dereferenceable(64) %0, ptr noundef nonnull align 8 dereferenceable(80) %1) unnamed_addr #3 align 2 {
  %3 = load ptr, ptr %0, align 8
  %4 = getelementptr inbounds i8, ptr %3, i64 872
  %5 = load ptr, ptr %4, align 8
  tail call void %5(ptr noundef nonnull align 8 dereferenceable(64) %0, ptr noundef nonnull align 8 dereferenceable(56) %1)
  %6 = tail call noundef nonnull align 4 dereferenceable(12) ptr @_ZNK4LIEF5MachO10VersionMin7versionEv(ptr noundef nonnull align 8 dereferenceable(80) %1)
  br label %.lr.ph.i.i

.lr.ph.i.i:                                       ; preds = %.lr.ph.i.i, %2
  %.08.i.idx.i = phi i64 [ %.08.i.add.i, %.lr.ph.i.i ], [ 0, %2 ]
  %.08.i.ptr.i = getelementptr inbounds i8, ptr %6, i64 %.08.i.idx.i
  %7 = load i32, ptr %.08.i.ptr.i, align 4
  %8 = zext i32 %7 to i64
  %9 = load ptr, ptr %0, align 8
  %10 = getelementptr inbounds i8, ptr %9, i64 1328
  %11 = load ptr, ptr %10, align 8
  %12 = tail call noundef nonnull align 8 dereferenceable(64) ptr %11(ptr noundef nonnull align 8 dereferenceable(64) %0, i64 noundef %8)
  %.08.i.add.i = add nuw nsw i64 %.08.i.idx.i, 4
  %.not.i.i = icmp eq i64 %.08.i.add.i, 12
  br i1 %.not.i.i, label %_ZN4LIEF4Hash7processIjLm3EEERS0_RKSt5arrayIT_XT0_EE.exit, label %.lr.ph.i.i, !llvm.loop !63

_ZN4LIEF4Hash7processIjLm3EEERS0_RKSt5arrayIT_XT0_EE.exit: ; preds = %.lr.ph.i.i
  %13 = tail call noundef nonnull align 4 dereferenceable(12) ptr @_ZNK4LIEF5MachO10VersionMin3sdkEv(ptr noundef nonnull align 8 dereferenceable(80) %1)
  br label %.lr.ph.i.i4

.lr.ph.i.i4:                                      ; preds = %.lr.ph.i.i4, %_ZN4LIEF4Hash7processIjLm3EEERS0_RKSt5arrayIT_XT0_EE.exit
  %.08.i.idx.i5 = phi i64 [ %.08.i.add.i7, %.lr.ph.i.i4 ], [ 0, %_ZN4LIEF4Hash7processIjLm3EEERS0_RKSt5arrayIT_XT0_EE.exit ]
  %.08.i.ptr.i6 = getelementptr inbounds i8, ptr %13, i64 %.08.i.idx.i5
  %14 = load i32, ptr %.08.i.ptr.i6, align 4
  %15 = zext i32 %14 to i64
  %16 = load ptr, ptr %0, align 8
  %17 = getelementptr inbounds i8, ptr %16, i64 1328
  %18 = load ptr, ptr %17, align 8
  %19 = tail call noundef nonnull align 8 dereferenceable(64) ptr %18(ptr noundef nonnull align 8 dereferenceable(64) %0, i64 noundef %15)
  %.08.i.add.i7 = add nuw nsw i64 %.08.i.idx.i5, 4
  %.not.i.i8 = icmp eq i64 %.08.i.add.i7, 12
  br i1 %.not.i.i8, label %_ZN4LIEF4Hash7processIjLm3EEERS0_RKSt5arrayIT_XT0_EE.exit9, label %.lr.ph.i.i4, !llvm.loop !63

_ZN4LIEF4Hash7processIjLm3EEERS0_RKSt5arrayIT_XT0_EE.exit9: ; preds = %.lr.ph.i.i4
  ret void
}